; Function Attrs: mustprogress nofree norecurse nosync nounwind willreturn memory(argmem: readwrite) uwtable
define hidden void @_ZN6Assimp3IFC8TempMesh5ClearEv(ptr noundef nonnull align 8 captures(none) dereferenceable(48) %0) local_unnamed_addr #5 align 2 personality ptr @__gxx_personality_v0 {
  %2 = load ptr, ptr %0, align 8
  %3 = getelementptr inbounds nuw i8, ptr %0, i64 8
  %4 = load ptr, ptr %3, align 8
  %.not.i.i = icmp eq ptr %4, %2
  br i1 %.not.i.i, label %_ZNSt6vectorI10aiVector3tIdESaIS1_EE5clearEv.exit, label %5

5:                                                ; preds = %1
  store ptr %2, ptr %3, align 8
  br label %_ZNSt6vectorI10aiVector3tIdESaIS1_EE5clearEv.exit

_ZNSt6vectorI10aiVector3tIdESaIS1_EE5clearEv.exit: ; preds = %1, %5
  %6 = getelementptr inbounds nuw i8, ptr %0, i64 24
  %7 = load ptr, ptr %6, align 8
  %8 = getelementptr inbounds nuw i8, ptr %0, i64 32
  %9 = load ptr, ptr %8, align 8
  %.not.i.i1 = icmp eq ptr %9, %7
  br i1 %.not.i.i1, label %_ZNSt6vectorIjSaIjEE5clearEv.exit, label %10

10:                                               ; preds = %_ZNSt6vectorI10aiVector3tIdESaIS1_EE5clearEv.exit
  store ptr %7, ptr %8, align 8
  br label %_ZNSt6vectorIjSaIjEE5clearEv.exit

_ZNSt6vectorIjSaIjEE5clearEv.exit:                ; preds = %_ZNSt6vectorI10aiVector3tIdESaIS1_EE5clearEv.exit, %10
  ret void
}